; Function Attrs: mustprogress nounwind uwtable
define void @_ZN5draco16DirectBitDecoderD2Ev(ptr noundef nonnull align 8 captures(none) dereferenceable(36) initializes((24, 36)) %0) unnamed_addr #4 align 2 personality ptr @__gxx_personality_v0 {
  %2 = load ptr, ptr %0, align 8, !tbaa !3
  %3 = getelementptr inbounds nuw i8, ptr %0, i64 8
  %4 = load ptr, ptr %3, align 8, !tbaa !9
  %.not.i.i.i = icmp eq ptr %4, %2
  br i1 %.not.i.i.i, label %_ZN5draco16DirectBitDecoder5ClearEv.exit, label %5

5:                                                ; preds = %1
  store ptr %2, ptr %3, align 8, !tbaa !9
  br label %_ZN5draco16DirectBitDecoder5ClearEv.exit

_ZN5draco16DirectBitDecoder5ClearEv.exit:         ; preds = %1, %5
  %6 = getelementptr inbounds nuw i8, ptr %0, i64 32
  store i32 0, ptr %6, align 8, !tbaa !10
  %7 = getelementptr inbounds nuw i8, ptr %0, i64 24
  %8 = ptrtoint ptr %2 to i64
  store i64 %8, ptr %7, align 8, !tbaa !17
  %.not.i.i.i1 = icmp eq ptr %2, null
  br i1 %.not.i.i.i1, label %_ZNSt6vectorIjSaIjEED2Ev.exit, label %9

9:                                                ; preds = %_ZN5draco16DirectBitDecoder5ClearEv.exit
  %10 = getelementptr inbounds nuw i8, ptr %0, i64 16
  %11 = load ptr, ptr %10, align 8, !tbaa !18
  %12 = ptrtoint ptr %11 to i64
  %13 = sub i64 %12, %8
  tail call void @_ZdlPvm(ptr noundef nonnull %2, i64 noundef %13) #15
  br label %_ZNSt6vectorIjSaIjEED2Ev.exit

_ZNSt6vectorIjSaIjEED2Ev.exit:                    ; preds = %_ZN5draco16DirectBitDecoder5ClearEv.exit, %9
  ret void
}